target datalayout = "e-m:e-p270:32:32-p271:32:32-p272:64:64-i64:64-i128:128-f80:128-n8:16:32:64-S128"
target triple = "x86_64-pc-linux-gnu"

@.str.3 = private unnamed_addr constant [21 x i8] c"%02u:%02u:%02u%c%02u\00", align 1

; Function Attrs: nounwind uwtable
define ptr @av_timecode_make_mpeg_tc_string(ptr noundef %0, i32 noundef %1) #0 {
  %3 = alloca ptr, align 8
  %4 = alloca i32, align 4
  store ptr %0, ptr %3, align 8, !tbaa !19
  store i32 %1, ptr %4, align 4, !tbaa !4
  %5 = load ptr, ptr %3, align 8, !tbaa !19
  %6 = load i32, ptr %4, align 4, !tbaa !4
  %7 = lshr i32 %6, 19
  %8 = and i32 %7, 31
  %9 = load i32, ptr %4, align 4, !tbaa !4
  %10 = lshr i32 %9, 13
  %11 = and i32 %10, 63
  %12 = load i32, ptr %4, align 4, !tbaa !4
  %13 = lshr i32 %12, 6
  %14 = and i32 %13, 63
  %15 = load i32, ptr %4, align 4, !tbaa !4
  %16 = and i32 %15, 16777216
  %17 = icmp ne i32 %16, 0
  %18 = select i1 %17, i32 59, i32 58
  %19 = load i32, ptr %4, align 4, !tbaa !4
  %20 = and i32 %19, 63
  %21 = call i32 (ptr, i64, ptr, ...) @snprintf(ptr noundef %5, i64 noundef 23, ptr noundef @.str.3, i32 noundef %8, i32 noundef %11, i32 noundef %14, i32 noundef %18, i32 noundef %20) #8
  %22 = load ptr, ptr %3, align 8, !tbaa !19
  ret ptr %22
}