; Function Attrs: nofree nounwind uwtable
define noundef ptr @av_timecode_make_mpeg_tc_string(ptr noundef returned writeonly captures(ret: address, provenance) %0, i32 noundef %1) local_unnamed_addr #3 {
  %3 = lshr i32 %1, 19
  %4 = and i32 %3, 31
  %5 = lshr i32 %1, 13
  %6 = and i32 %5, 63
  %7 = lshr i32 %1, 6
  %8 = and i32 %7, 63
  %9 = and i32 %1, 16777216
  %.not = icmp eq i32 %9, 0
  %10 = select i1 %.not, i32 58, i32 59
  %11 = and i32 %1, 63
  %12 = tail call i32 (ptr, i64, ptr, ...) @snprintf(ptr noundef nonnull dereferenceable(1) %0, i64 noundef 23, ptr noundef nonnull @.str.3, i32 noundef %4, i32 noundef %6, i32 noundef %8, i32 noundef %10, i32 noundef %11) #10
  ret ptr %0
}